Certificate:
    Data:
        Version: 3 (0x2)
        Serial Number: 1 (0x1)
    Signature Algorithm: sha256WithRSAEncryption
        Issuer: C=US, ST=Unset, L=Unset, O=Unset, CN=www.example.com
        Validity
            Not Before: May 18 05:42:06 2014 GMT
            Not After : May 15 05:42:06 2024 GMT
        Subject: C=US, ST=Unset, O=Unset, CN=www.example.com
        Subject Public Key Info:
            Public Key Algorithm: rsaEncryption
                Public-Key: (2048 bit)
                Modulus:
                    00:f3:68:15:69:b9:c1:90:c4:11:10:53:95:c8:21:
                    fa:0b:ee:45:b2:4e:66:93:0b:b2:a1:a3:43:de:c5:
                    91:50:6f:96:f9:41:d3:c6:be:f5:40:3a:4d:c5:61:
                    b3:34:c3:d3:44:0d:1a:a4:1c:ac:06:4f:ec:40:e6:
                    1a:e4:5b:bd:a0:70:14:e9:cd:70:38:e4:01:88:8b:
                    84:42:9d:34:06:cd:f6:f2:c3:c5:13:ec:09:3b:76:
                    75:8a:8c:10:9b:ca:41:78:8d:ff:a3:35:21:4a:45:
                    06:25:8f:56:04:91:61:65:ae:1c:df:8d:98:fb:23:
                    42:37:a1:05:0c:8c:4f:04:3b:a8:95:b2:0d:dc:44:
                    e5:e3:0c:3c:16:27:27:ec:56:42:30:c3:60:c2:4d:
                    db:f2:14:f6:36:05:c8:d8:d1:77:33:31:83:fe:11:
                    f2:5f:5c:bd:3e:30:39:73:4f:d0:45:2a:3a:5d:18:
                    ba:d3:e6:df:c2:bb:f0:07:97:37:3c:6f:37:57:94:
                    a7:d9:56:68:0c:df:d2:67:41:a9:69:9f:96:50:ad:
                    41:3a:11:b4:c6:2c:ff:05:fb:27:d8:5a:b3:8b:2a:
                    62:fe:7f:4b:f0:6f:b1:27:7b:5f:a3:fe:21:db:ad:
                    93:07:e5:bb:43:ba:31:d1:e3:14:c7:95:d5:0a:0b:
                    23:f7
                Exponent: 65537 (0x10001)
        X509v3 extensions:
            X509v3 Basic Constraints: 
                CA:FALSE
            X509v3 Subject Key Identifier: 
                84:D2:73:FA:42:C3:17:A2:55:A6:3D:CC:6C:64:EF:E5:53:17:42:81
            X509v3 Authority Key Identifier: 
                keyid:66:C3:65:A4:0A:70:40:E7:B1:56:53:EA:7B:9F:A6:BE:8A:47:BB:18

    Signature Algorithm: sha256WithRSAEncryption
         7c:78:cb:56:0b:d4:1e:49:83:b9:4b:f0:fd:c9:bf:20:e3:89:
         fd:24:fc:b6:a9:55:85:ff:42:48:4a:f9:96:45:b7:37:38:df:
         ed:f4:3f:96:30:81:7d:c3:aa:dc:0c:a7:0b:35:69:9e:eb:b0:
         a1:18:79:ee:b5:36:7f:ee:5f:87:f1:5b:0e:65:c1:42:b1:f4:
         9c:c5:d9:8d:a7:89:01:39:72:e7:50:e8:b7:00:41:c9:f4:e9:
         ff:f4:b5:60:94:06:17:54:88:90:ac:58:87:79:c2:0d:3f:06:
         89:fd:9e:be:f5:e2:de:58:5b:f1:e1:e6:38:b4:a1:66:e2:67:
         4c:2b:44:e1:f5:26:09:b0:18:1e:2e:d1:fb:ec:30:ca:dc:3e:
         15:5d:5d:80:0a:15:97:db:4b:1d:f7:c4:89:18:2e:ec:59:55:
         01:e1:77:b7:15:4f:dc:f9:25:66:7f:5c:6e:61:7a:5f:5c:c4:
         33:74:2a:f0:fd:01:2b:b1:3d:fe:fa:cd:06:80:45:19:2b:82:
         3f:73:80:06:d5:54:29:b6:26:e8:82:29:78:bb:6a:06:cb:e4:
         cb:90:a3:42:24:2a:47:07:dc:41:0b:52:4d:f7:4b:94:6a:1c:
         54:34:40:8e:49:8b:85:66:d1:d4:ec:b9:02:7b:ed:12:fa:15:
         17:42:29:4e
-----BEGIN CERTIFICATE-----
MIIDZjCCAk6gAwIBAgIBATANBgkqhkiG9w0BAQsFADBXMQswCQYDVQQGEwJVUzEO
MAwGA1UECAwFVW5zZXQxDjAMBgNVBAcMBVVuc2V0MQ4wDAYDVQQKDAVVbnNldDEY
MBYGA1UEAwwPd3d3LmV4YW1wbGUuY29tMB4XDTE0MDUxODA1NDIwNloXDTI0MDUx
NTA1NDIwNlowRzELMAkGA1UEBhMCVVMxDjAMBgNVBAgMBVVuc2V0MQ4wDAYDVQQK
DAVVbnNldDEYMBYGA1UEAwwPd3d3LmV4YW1wbGUuY29tMIIBIjANBgkqhkiG9w0B
AQEFAAOCAQ8AMIIBCgKCAQEA82gVabnBkMQREFOVyCH6C+5Fsk5mkwuyoaND3sWR
UG+W+UHTxr71QDpNxWGzNMPTRA0apBysBk/sQOYa5Fu9oHAU6c1wOOQBiIuEQp00
Bs328sPFE+wJO3Z1iowQm8pBeI3/ozUhSkUGJY9WBJFhZa4c342Y+yNCN6EFDIxP
BDuolbIN3ETl4ww8Ficn7FZCMMNgwk3b8hT2NgXI2NF3MzGD/hHyX1y9PjA5c0/Q
RSo6XRi60+bfwrvwB5c3PG83V5Sn2VZoDN/SZ0GpaZ+WUK1BOhG0xiz/Bfsn2Fqz
iypi/n9L8G+xJ3tfo/4h262TB+W7Q7ox0eMUx5XVCgsj9wIDAQABo00wSzAJBgNV
HRMEAjAAMB0GA1UdDgQWBBSE0nP6QsMXolWmPcxsZO/lUxdCgTAfBgNVHSMEGDAW
gBRmw2WkCnBA57FWU+p7n6a+ike7GDANBgkqhkiG9w0BAQsFAAOCAQEAfHjLVgvU
HkmDuUvw/cm/IOOJ/ST8tqlVhf9CSEr5lkW3Nzjf7fQ/ljCBfcOq3AynCzVpnuuw
oRh57rU2f+5fh/FbDmXBQrH0nMXZjaeJATly51DotwBByfTp//S1YJQGF1SIkKxY
h3nCDT8Gif2evvXi3lhb8eHmOLShZuJnTCtE4fUmCbAYHi7R++wwytw+FV1dgAoV
l9tLHffEiRgu7FlVAeF3txVP3PklZn9cbmF6X1zEM3Qq8P0BK7E9/vrNBoBFGSuC
P3OABtVUKbYm6IIpeLtqBsvky5CjQiQqRwfcQQtSTfdLlGocVDRAjkmLhWbR1Oy5
AnvtEvoVF0IpTg==
-----END CERTIFICATE-----
